target datalayout = "e-m:e-p270:32:32-p271:32:32-p272:64:64-i64:64-i128:128-f80:128-n8:16:32:64-S128"
target triple = "x86_64-unknown-linux-gnu"

%struct.pkcs1_sig_prefix = type { i32, i8, [19 x i8] }

@.str = private unnamed_addr constant [120 x i8] c"generated/home/dtcxzyw/WorkSpace/Projects/compilers/llvm-opt-benchmark/bench/libquic/libquic/boringssl/crypto/rsa/rsa.c\00", align 1

; Function Attrs: nounwind uwtable
define hidden i32 @RSA_add_pkcs1_prefix(ptr noundef %out_msg, ptr noundef %out_msg_len, ptr noundef %is_alloced, i32 noundef %hash_nid, ptr noundef %msg, i64 noundef %msg_len) #0 {
entry:
  %retval = alloca i32, align 4
  %out_msg.addr = alloca ptr, align 8
  %out_msg_len.addr = alloca ptr, align 8
  %is_alloced.addr = alloca ptr, align 8
  %hash_nid.addr = alloca i32, align 4
  %msg.addr = alloca ptr, align 8
  %msg_len.addr = alloca i64, align 8
  %i = alloca i32, align 4
  %sig_prefix = alloca ptr, align 8
  %prefix = alloca ptr, align 8
  %prefix_len = alloca i32, align 4
  %signed_msg_len = alloca i32, align 4
  %signed_msg = alloca ptr, align 8
  store ptr %out_msg, ptr %out_msg.addr, align 8
  store ptr %out_msg_len, ptr %out_msg_len.addr, align 8
  store ptr %is_alloced, ptr %is_alloced.addr, align 8
  store i32 %hash_nid, ptr %hash_nid.addr, align 4
  store ptr %msg, ptr %msg.addr, align 8
  store i64 %msg_len, ptr %msg_len.addr, align 8
  %0 = load i32, ptr %hash_nid.addr, align 4
  %cmp = icmp eq i32 %0, 114
  br i1 %cmp, label %if.then, label %if.end3

if.then:                                          ; preds = %entry
  %1 = load i64, ptr %msg_len.addr, align 8
  %cmp1 = icmp ne i64 %1, 36
  br i1 %cmp1, label %if.then2, label %if.end

if.then2:                                         ; preds = %if.then
  call void @ERR_put_error(i32 noundef 4, i32 noundef 0, i32 noundef 125, ptr noundef @.str, i32 noundef 380)
  store i32 0, ptr %retval, align 4
  br label %return

if.end:                                           ; preds = %if.then
  %2 = load ptr, ptr %msg.addr, align 8
  %3 = load ptr, ptr %out_msg.addr, align 8
  store ptr %2, ptr %3, align 8
  %4 = load ptr, ptr %out_msg_len.addr, align 8
  store i64 36, ptr %4, align 8
  %5 = load ptr, ptr %is_alloced.addr, align 8
  store i32 0, ptr %5, align 4
  store i32 1, ptr %retval, align 4
  br label %return

if.end3:                                          ; preds = %entry
  store i32 0, ptr %i, align 4
  br label %for.cond

for.cond:                                         ; preds = %for.inc, %if.end3
  %6 = load i32, ptr %i, align 4
  %idxprom = zext i32 %6 to i64
  %arrayidx = getelementptr inbounds [7 x %struct.pkcs1_sig_prefix], ptr @kPKCS1SigPrefixes, i64 0, i64 %idxprom
  %nid = getelementptr inbounds %struct.pkcs1_sig_prefix, ptr %arrayidx, i32 0, i32 0
  %7 = load i32, ptr %nid, align 8
  %cmp4 = icmp ne i32 %7, 0
  br i1 %cmp4, label %for.body, label %for.end

for.body:                                         ; preds = %for.cond
  %8 = load i32, ptr %i, align 4
  %idxprom5 = zext i32 %8 to i64
  %arrayidx6 = getelementptr inbounds [7 x %struct.pkcs1_sig_prefix], ptr @kPKCS1SigPrefixes, i64 0, i64 %idxprom5
  store ptr %arrayidx6, ptr %sig_prefix, align 8
  %9 = load ptr, ptr %sig_prefix, align 8
  %nid7 = getelementptr inbounds %struct.pkcs1_sig_prefix, ptr %9, i32 0, i32 0
  %10 = load i32, ptr %nid7, align 4
  %11 = load i32, ptr %hash_nid.addr, align 4
  %cmp8 = icmp ne i32 %10, %11
  br i1 %cmp8, label %if.then9, label %if.end10

if.then9:                                         ; preds = %for.body
  br label %for.inc

if.end10:                                         ; preds = %for.body
  %12 = load ptr, ptr %sig_prefix, align 8
  %bytes = getelementptr inbounds %struct.pkcs1_sig_prefix, ptr %12, i32 0, i32 2
  %arraydecay = getelementptr inbounds [19 x i8], ptr %bytes, i64 0, i64 0
  store ptr %arraydecay, ptr %prefix, align 8
  %13 = load ptr, ptr %sig_prefix, align 8
  %len = getelementptr inbounds %struct.pkcs1_sig_prefix, ptr %13, i32 0, i32 1
  %14 = load i8, ptr %len, align 4
  %conv = zext i8 %14 to i32
  store i32 %conv, ptr %prefix_len, align 4
  %15 = load i32, ptr %prefix_len, align 4
  %conv11 = zext i32 %15 to i64
  %16 = load i64, ptr %msg_len.addr, align 8
  %add = add i64 %conv11, %16
  %conv12 = trunc i64 %add to i32
  store i32 %conv12, ptr %signed_msg_len, align 4
  %17 = load i32, ptr %signed_msg_len, align 4
  %18 = load i32, ptr %prefix_len, align 4
  %cmp13 = icmp ult i32 %17, %18
  br i1 %cmp13, label %if.then15, label %if.end16

if.then15:                                        ; preds = %if.end10
  call void @ERR_put_error(i32 noundef 4, i32 noundef 0, i32 noundef 140, ptr noundef @.str, i32 noundef 403)
  store i32 0, ptr %retval, align 4
  br label %return

if.end16:                                         ; preds = %if.end10
  %19 = load i32, ptr %signed_msg_len, align 4
  %conv17 = zext i32 %19 to i64
  %call = call noalias ptr @malloc(i64 noundef %conv17) #7
  store ptr %call, ptr %signed_msg, align 8
  %20 = load ptr, ptr %signed_msg, align 8
  %tobool = icmp ne ptr %20, null
  br i1 %tobool, label %if.end19, label %if.then18

if.then18:                                        ; preds = %if.end16
  call void @ERR_put_error(i32 noundef 4, i32 noundef 0, i32 noundef 65, ptr noundef @.str, i32 noundef 409)
  store i32 0, ptr %retval, align 4
  br label %return

if.end19:                                         ; preds = %if.end16
  %21 = load ptr, ptr %signed_msg, align 8
  %22 = load ptr, ptr %prefix, align 8
  %23 = load i32, ptr %prefix_len, align 4
  %conv20 = zext i32 %23 to i64
  call void @llvm.memcpy.p0.p0.i64(ptr align 1 %21, ptr align 1 %22, i64 %conv20, i1 false)
  %24 = load ptr, ptr %signed_msg, align 8
  %25 = load i32, ptr %prefix_len, align 4
  %idx.ext = zext i32 %25 to i64
  %add.ptr = getelementptr inbounds i8, ptr %24, i64 %idx.ext
  %26 = load ptr, ptr %msg.addr, align 8
  %27 = load i64, ptr %msg_len.addr, align 8
  call void @llvm.memcpy.p0.p0.i64(ptr align 1 %add.ptr, ptr align 1 %26, i64 %27, i1 false)
  %28 = load ptr, ptr %signed_msg, align 8
  %29 = load ptr, ptr %out_msg.addr, align 8
  store ptr %28, ptr %29, align 8
  %30 = load i32, ptr %signed_msg_len, align 4
  %conv21 = zext i32 %30 to i64
  %31 = load ptr, ptr %out_msg_len.addr, align 8
  store i64 %conv21, ptr %31, align 8
  %32 = load ptr, ptr %is_alloced.addr, align 8
  store i32 1, ptr %32, align 4
  store i32 1, ptr %retval, align 4
  br label %return

for.inc:                                          ; preds = %if.then9
  %33 = load i32, ptr %i, align 4
  %inc = add i32 %33, 1
  store i32 %inc, ptr %i, align 4
  br label %for.cond, !llvm.loop !9

for.end:                                          ; preds = %for.cond
  call void @ERR_put_error(i32 noundef 4, i32 noundef 0, i32 noundef 142, ptr noundef @.str, i32 noundef 423)
  store i32 0, ptr %retval, align 4
  br label %return

return:                                           ; preds = %for.end, %if.end19, %if.then18, %if.then15, %if.end, %if.then2
  %34 = load i32, ptr %retval, align 4
  ret i32 %34
}