; Function Attrs: nounwind uwtable
define hidden range(i32 0, 2) i32 @RSA_add_pkcs1_prefix(ptr noundef writeonly captures(none) %out_msg, ptr noundef writeonly captures(none) %out_msg_len, ptr noundef writeonly captures(none) %is_alloced, i32 noundef %hash_nid, ptr noundef %msg, i64 noundef %msg_len) local_unnamed_addr #0 {
entry:
  switch i32 %hash_nid, label %for.cond [
    i32 114, label %if.then
    i32 4, label %if.end10
  ]

if.then:                                          ; preds = %entry
  %cmp1.not = icmp eq i64 %msg_len, 36
  br i1 %cmp1.not, label %if.end, label %if.then2

if.then2:                                         ; preds = %if.then
  tail call void @ERR_put_error(i32 noundef 4, i32 noundef 0, i32 noundef 125, ptr noundef nonnull @.str, i32 noundef 380) #9
  br label %return

if.end:                                           ; preds = %if.then
  store ptr %msg, ptr %out_msg, align 8
  store i64 36, ptr %out_msg_len, align 8
  store i32 0, ptr %is_alloced, align 4
  br label %return

for.cond:                                         ; preds = %entry, %for.body
  %indvars.iv28 = phi i64 [ %indvars.iv.next, %for.body ], [ 0, %entry ]
  %indvars.iv.next = add nuw nsw i64 %indvars.iv28, 1
  %exitcond = icmp eq i64 %indvars.iv.next, 6
  br i1 %exitcond, label %for.end, label %for.body, !llvm.loop !9

for.body:                                         ; preds = %for.cond
  %arrayidx = getelementptr inbounds nuw [7 x %struct.pkcs1_sig_prefix], ptr @kPKCS1SigPrefixes, i64 0, i64 %indvars.iv.next
  %0 = load i32, ptr %arrayidx, align 8
  %cmp8.not = icmp eq i32 %0, %hash_nid
  br i1 %cmp8.not, label %if.end10, label %for.cond, !llvm.loop !9

if.end10:                                         ; preds = %for.body, %entry
  %arrayidx22.lcssa = phi ptr [ @kPKCS1SigPrefixes, %entry ], [ %arrayidx, %for.body ]
  %bytes = getelementptr inbounds nuw i8, ptr %arrayidx22.lcssa, i64 5
  %len = getelementptr inbounds nuw i8, ptr %arrayidx22.lcssa, i64 4
  %1 = load i8, ptr %len, align 4
  %conv = zext i8 %1 to i32
  %conv11 = zext i8 %1 to i64
  %add = add i64 %msg_len, %conv11
  %conv12 = trunc i64 %add to i32
  %cmp13 = icmp ult i32 %conv12, %conv
  br i1 %cmp13, label %if.then15, label %if.end16

if.then15:                                        ; preds = %if.end10
  tail call void @ERR_put_error(i32 noundef 4, i32 noundef 0, i32 noundef 140, ptr noundef nonnull @.str, i32 noundef 403) #9
  br label %return

if.end16:                                         ; preds = %if.end10
  %conv17 = and i64 %add, 4294967295
  %call = tail call noalias ptr @malloc(i64 noundef %conv17) #10
  %tobool.not = icmp eq ptr %call, null
  br i1 %tobool.not, label %if.then18, label %if.end19

if.then18:                                        ; preds = %if.end16
  tail call void @ERR_put_error(i32 noundef 4, i32 noundef 0, i32 noundef 65, ptr noundef nonnull @.str, i32 noundef 409) #9
  br label %return

if.end19:                                         ; preds = %if.end16
  tail call void @llvm.memcpy.p0.p0.i64(ptr nonnull align 1 %call, ptr nonnull align 1 %bytes, i64 %conv11, i1 false)
  %add.ptr = getelementptr inbounds nuw i8, ptr %call, i64 %conv11
  tail call void @llvm.memcpy.p0.p0.i64(ptr nonnull align 1 %add.ptr, ptr align 1 %msg, i64 %msg_len, i1 false)
  store ptr %call, ptr %out_msg, align 8
  store i64 %conv17, ptr %out_msg_len, align 8
  store i32 1, ptr %is_alloced, align 4
  br label %return

for.end:                                          ; preds = %for.cond
  tail call void @ERR_put_error(i32 noundef 4, i32 noundef 0, i32 noundef 142, ptr noundef nonnull @.str, i32 noundef 423) #9
  br label %return

return:                                           ; preds = %for.end, %if.end19, %if.then18, %if.then15, %if.end, %if.then2
  %retval.0 = phi i32 [ 0, %if.then2 ], [ 1, %if.end ], [ 0, %if.then15 ], [ 1, %if.end19 ], [ 0, %if.then18 ], [ 0, %for.end ]
  ret i32 %retval.0
}